target datalayout = "e-m:e-p270:32:32-p271:32:32-p272:64:64-i64:64-i128:128-f80:128-n8:16:32:64-S128"
target triple = "x86_64-pc-linux-gnu"

%"class.tl::expected.4" = type { %"struct.tl::detail::expected_move_assign_base.base.17", [3 x i8] }
%"struct.tl::detail::expected_move_assign_base.base.17" = type { %"struct.tl::detail::expected_copy_assign_base.base.16" }
%"struct.tl::detail::expected_copy_assign_base.base.16" = type { %"struct.tl::detail::expected_move_base.base.15" }
%"struct.tl::detail::expected_move_base.base.15" = type { %"struct.tl::detail::expected_copy_base.base.14" }
%"struct.tl::detail::expected_copy_base.base.14" = type { %"struct.tl::detail::expected_operations_base.base.13" }
%"struct.tl::detail::expected_operations_base.base.13" = type { %"struct.tl::detail::expected_storage_base.base.12" }
%"struct.tl::detail::expected_storage_base.base.12" = type <{ %union.anon.11, i8 }>
%union.anon.11 = type { %"class.tl::unexpected" }
%"class.tl::unexpected" = type { i32 }
%"struct.tl::detail::expected_storage_base.10" = type <{ %union.anon.11, i8, [3 x i8] }>

; Function Attrs: mustprogress nounwind uwtable
define linkonce_odr hidden noundef nonnull align 1 dereferenceable(1) ptr @_ZN2tl8expectedIb11lief_errorsE3valIbTnPNSt9enable_ifIXntsr3std7is_voidIT_EE5valueEvE4typeELPv0EEERS5_v(ptr noundef nonnull align 4 dereferenceable(5) %0) #0 comdat align 2 {
  %2 = alloca ptr, align 8
  store ptr %0, ptr %2, align 8, !tbaa !16
  %3 = load ptr, ptr %2, align 8
  %4 = getelementptr inbounds nuw %"struct.tl::detail::expected_storage_base.10", ptr %3, i32 0, i32 0
  ret ptr %4
}

; Function Attrs: mustprogress nounwind uwtable
define linkonce_odr hidden noundef nonnull align 1 dereferenceable(1) ptr @_ZNR2tl8expectedIb11lief_errorsEdeIbTnPNSt9enable_ifIXntsr3std7is_voidIT_EE5valueEvE4typeELPv0EEERS5_v(ptr noundef nonnull align 4 dereferenceable(5) %0) #0 comdat align 2 {
  %2 = alloca ptr, align 8
  store ptr %0, ptr %2, align 8, !tbaa !16
  %3 = load ptr, ptr %2, align 8
  %4 = call noundef nonnull align 1 dereferenceable(1) ptr @_ZN2tl8expectedIb11lief_errorsE3valIbTnPNSt9enable_ifIXntsr3std7is_voidIT_EE5valueEvE4typeELPv0EEERS5_v(ptr noundef nonnull align 4 dereferenceable(5) %3)
  ret ptr %4
}

; Function Attrs: mustprogress nounwind uwtable
define linkonce_odr hidden noundef zeroext i1 @_ZNK2tl8expectedIb11lief_errorsEcvbEv(ptr noundef nonnull align 4 dereferenceable(5) %0) #0 comdat align 2 {
  %2 = alloca ptr, align 8
  store ptr %0, ptr %2, align 8, !tbaa !16
  %3 = load ptr, ptr %2, align 8
  %4 = getelementptr inbounds nuw %"struct.tl::detail::expected_storage_base.10", ptr %3, i32 0, i32 1
  %5 = load i8, ptr %4, align 4, !tbaa !45, !range !20, !noundef !21
  %6 = trunc i8 %5 to i1
  ret i1 %6
}

; Function Attrs: mustprogress nounwind uwtable
define linkonce_odr hidden noundef zeroext i1 @_ZNO2tl8expectedIb11lief_errorsE8value_orIbEEbOT_(ptr noundef nonnull align 4 dereferenceable(5) %0, ptr noundef nonnull align 1 dereferenceable(1) %1) #0 comdat align 2 {
  %3 = alloca ptr, align 8
  %4 = alloca ptr, align 8
  store ptr %0, ptr %3, align 8, !tbaa !16
  store ptr %1, ptr %4, align 8, !tbaa !18
  %5 = load ptr, ptr %3, align 8
  %6 = call noundef zeroext i1 @_ZNK2tl8expectedIb11lief_errorsEcvbEv(ptr noundef nonnull align 4 dereferenceable(5) %5) #19
  br i1 %6, label %7, label %11

7:                                                ; preds = %2
  %8 = call noundef nonnull align 1 dereferenceable(1) ptr @_ZNR2tl8expectedIb11lief_errorsEdeIbTnPNSt9enable_ifIXntsr3std7is_voidIT_EE5valueEvE4typeELPv0EEERS5_v(ptr noundef nonnull align 4 dereferenceable(5) %5)
  %9 = load i8, ptr %8, align 1, !tbaa !14, !range !20, !noundef !21
  %10 = trunc i8 %9 to i1
  br label %15

11:                                               ; preds = %2
  %12 = load ptr, ptr %4, align 8, !tbaa !18
  %13 = load i8, ptr %12, align 1, !tbaa !14, !range !20, !noundef !21
  %14 = trunc i8 %13 to i1
  br label %15

15:                                               ; preds = %11, %7
  %16 = phi i1 [ %10, %7 ], [ %14, %11 ]
  ret i1 %16
}

; Function Attrs: mustprogress nounwind uwtable
define noundef zeroext i1 @_ZNK4LIEF3ELF8QNXStack13is_executableEv(ptr noundef nonnull align 8 dereferenceable(104) %0) #0 align 2 {
  %2 = alloca ptr, align 8
  %3 = alloca %"class.tl::expected.4", align 4
  %4 = alloca i8, align 1
  store ptr %0, ptr %2, align 8, !tbaa !3
  %5 = load ptr, ptr %2, align 8
  call void @llvm.lifetime.start.p0(i64 8, ptr %3) #19
  %6 = call i64 @_ZNK4LIEF3ELF4Note7read_atIbEEN2tl8expectedIT_11lief_errorsEEm(ptr noundef nonnull align 8 dereferenceable(104) %5, i64 noundef 8)
  %7 = trunc i64 %6 to i40
  store i40 %7, ptr %3, align 4
  call void @llvm.lifetime.start.p0(i64 1, ptr %4) #19
  store i8 1, ptr %4, align 1, !tbaa !14
  %8 = call noundef zeroext i1 @_ZNO2tl8expectedIb11lief_errorsE8value_orIbEEbOT_(ptr noundef nonnull align 4 dereferenceable(5) %3, ptr noundef nonnull align 1 dereferenceable(1) %4)
  %9 = xor i1 %8, true
  call void @llvm.lifetime.end.p0(i64 1, ptr %4) #19
  call void @llvm.lifetime.end.p0(i64 8, ptr %3) #19
  ret i1 %9
}