; Function Attrs: mustprogress nounwind uwtable
define noundef zeroext i1 @_ZNK4LIEF3ELF8QNXStack13is_executableEv(ptr noundef nonnull align 8 dereferenceable(104) %0) local_unnamed_addr #0 align 2 {
  %2 = tail call i64 @_ZNK4LIEF3ELF4Note7read_atIbEEN2tl8expectedIT_11lief_errorsEEm(ptr noundef nonnull align 8 dereferenceable(104) %0, i64 noundef 8) #21
  %3 = and i64 %2, 4294967296
  %.not = icmp eq i64 %3, 0
  %4 = trunc i64 %2 to i1
  %5 = or i1 %.not, %4
  %6 = xor i1 %5, true
  ret i1 %6
}